target datalayout = "e-m:e-p270:32:32-p271:32:32-p272:64:64-i64:64-i128:128-f80:128-n8:16:32:64-S128"
target triple = "x86_64-pc-linux-gnu"

%struct.color_t = type { i16, i16, i16 }
%struct.preference = type { ptr, ptr, ptr, i32, i32, i32, %union.anon, %union.anon.0, %union.anon.1, %union.anon.2, %struct.pref_custom_cbs, ptr, ptr }
%union.anon = type { ptr }
%union.anon.0 = type { ptr }
%union.anon.1 = type { ptr }
%union.anon.2 = type { %struct.anon }
%struct.anon = type { ptr, i8 }
%struct.pref_custom_cbs = type { ptr, ptr, ptr, ptr, ptr, ptr, ptr }
%struct.enum_val_t = type { ptr, ptr, i32 }
%struct.epan_uat = type { ptr, i64, ptr, i8, ptr, i32, ptr, ptr, ptr, ptr, ptr, ptr, ptr, ptr, ptr, i32, ptr, ptr, ptr, i8, ptr, ptr, i8 }

@.str.31 = private unnamed_addr constant [10 x i8] c"[Unknown]\00", align 1
@.str.69 = private unnamed_addr constant [14 x i8] c"[Static text]\00", align 1
@.str.73 = private unnamed_addr constant [11 x i8] c"[Obsolete]\00", align 1
@.str.74 = private unnamed_addr constant [3 x i8] c"%u\00", align 1
@.str.75 = private unnamed_addr constant [4 x i8] c"%#o\00", align 1
@.str.76 = private unnamed_addr constant [4 x i8] c"%#x\00", align 1
@.str.77 = private unnamed_addr constant [5 x i8] c"TRUE\00", align 1
@.str.78 = private unnamed_addr constant [6 x i8] c"FALSE\00", align 1
@.str.79 = private unnamed_addr constant [13 x i8] c"%02x%02x%02x\00", align 1
@.str.80 = private unnamed_addr constant [9 x i8] c"[Custom]\00", align 1
@.str.81 = private unnamed_addr constant [27 x i8] c"[Managed in the file \22%s\22]\00", align 1
@.str.82 = private unnamed_addr constant [29 x i8] c"[Managed in an unknown file]\00", align 1

; Function Attrs: null_pointer_is_valid sspstrong uwtable
define ptr @prefs_pref_to_str(ptr noundef %0, i32 noundef %1) #1 {
  %3 = alloca ptr, align 8
  %4 = alloca ptr, align 8
  %5 = alloca i32, align 4
  %6 = alloca ptr, align 8
  %7 = alloca ptr, align 8
  %8 = alloca ptr, align 8
  %9 = alloca ptr, align 8
  %10 = alloca ptr, align 8
  %11 = alloca i32, align 4
  %12 = alloca i32, align 4
  %13 = alloca i32, align 4
  %14 = alloca i32, align 4
  %15 = alloca ptr, align 8
  %16 = alloca ptr, align 8
  store ptr %0, ptr %4, align 8
  store i32 %1, ptr %5, align 4
  call void @llvm.lifetime.start.p0(i64 8, ptr %6) #17
  store ptr @.str.31, ptr %6, align 8
  call void @llvm.lifetime.start.p0(i64 8, ptr %7) #17
  call void @llvm.lifetime.start.p0(i64 8, ptr %8) #17
  call void @llvm.lifetime.start.p0(i64 8, ptr %9) #17
  call void @llvm.lifetime.start.p0(i64 8, ptr %10) #17
  call void @llvm.lifetime.start.p0(i64 4, ptr %11) #17
  %17 = load ptr, ptr %4, align 8
  %18 = icmp ne ptr %17, null
  br i1 %18, label %22, label %19

19:                                               ; preds = %2
  %20 = load ptr, ptr %6, align 8
  %21 = call noalias ptr @g_strdup(ptr noundef %20)
  store ptr %21, ptr %3, align 8
  store i32 1, ptr %12, align 4
  br label %185

22:                                               ; preds = %2
  %23 = load i32, ptr %5, align 4
  switch i32 %23, label %41 [
    i32 0, label %24
    i32 1, label %29
    i32 2, label %34
  ]

24:                                               ; preds = %22
  %25 = load ptr, ptr %4, align 8
  %26 = getelementptr inbounds nuw %struct.preference, ptr %25, i32 0, i32 8
  store ptr %26, ptr %7, align 8
  %27 = load ptr, ptr %4, align 8
  %28 = getelementptr inbounds nuw %struct.preference, ptr %27, i32 0, i32 8
  store ptr %28, ptr %8, align 8
  br label %44

29:                                               ; preds = %22
  %30 = load ptr, ptr %4, align 8
  %31 = getelementptr inbounds nuw %struct.preference, ptr %30, i32 0, i32 7
  store ptr %31, ptr %7, align 8
  %32 = load ptr, ptr %4, align 8
  %33 = getelementptr inbounds nuw %struct.preference, ptr %32, i32 0, i32 7
  store ptr %33, ptr %8, align 8
  br label %44

34:                                               ; preds = %22
  %35 = load ptr, ptr %4, align 8
  %36 = getelementptr inbounds nuw %struct.preference, ptr %35, i32 0, i32 6
  %37 = load ptr, ptr %36, align 8
  store ptr %37, ptr %7, align 8
  %38 = load ptr, ptr %4, align 8
  %39 = getelementptr inbounds nuw %struct.preference, ptr %38, i32 0, i32 6
  %40 = load ptr, ptr %39, align 8
  store ptr %40, ptr %8, align 8
  br label %44

41:                                               ; preds = %22
  %42 = load ptr, ptr %6, align 8
  %43 = call noalias ptr @g_strdup(ptr noundef %42)
  store ptr %43, ptr %3, align 8
  store i32 1, ptr %12, align 4
  br label %185

44:                                               ; preds = %34, %29, %24
  %45 = load ptr, ptr %4, align 8
  %46 = getelementptr inbounds nuw %struct.preference, ptr %45, i32 0, i32 4
  %47 = load i32, ptr %46, align 4
  store i32 %47, ptr %11, align 4
  %48 = load i32, ptr %11, align 4
  %49 = and i32 %48, 1024
  %50 = icmp ne i32 %49, 0
  br i1 %50, label %51, label %52

51:                                               ; preds = %44
  store ptr @.str.73, ptr %6, align 8
  br label %55

52:                                               ; preds = %44
  %53 = load i32, ptr %11, align 4
  %54 = and i32 %53, -1025
  store i32 %54, ptr %11, align 4
  br label %55

55:                                               ; preds = %52, %51
  %56 = load i32, ptr %11, align 4
  switch i32 %56, label %181 [
    i32 1, label %57
    i32 2, label %75
    i32 4, label %81
    i32 65536, label %81
    i32 8, label %110
    i32 128, label %110
    i32 16384, label %110
    i32 2048, label %110
    i32 32768, label %110
    i32 131072, label %110
    i32 8192, label %114
    i32 16, label %114
    i32 256, label %122
    i32 512, label %142
    i32 32, label %160
    i32 64, label %161
  ]

57:                                               ; preds = %55
  call void @llvm.lifetime.start.p0(i64 4, ptr %13) #17
  %58 = load ptr, ptr %7, align 8
  %59 = load i32, ptr %58, align 4
  store i32 %59, ptr %13, align 4
  %60 = load ptr, ptr %4, align 8
  %61 = getelementptr inbounds nuw %struct.preference, ptr %60, i32 0, i32 9
  %62 = load i32, ptr %61, align 8
  switch i32 %62, label %72 [
    i32 10, label %63
    i32 8, label %66
    i32 16, label %69
  ]

63:                                               ; preds = %57
  %64 = load i32, ptr %13, align 4
  %65 = call noalias ptr (ptr, ptr, ...) @wmem_strdup_printf(ptr noundef null, ptr noundef @.str.74, i32 noundef %64)
  store ptr %65, ptr %3, align 8
  store i32 1, ptr %12, align 4
  br label %73

66:                                               ; preds = %57
  %67 = load i32, ptr %13, align 4
  %68 = call noalias ptr (ptr, ptr, ...) @wmem_strdup_printf(ptr noundef null, ptr noundef @.str.75, i32 noundef %67)
  store ptr %68, ptr %3, align 8
  store i32 1, ptr %12, align 4
  br label %73

69:                                               ; preds = %57
  %70 = load i32, ptr %13, align 4
  %71 = call noalias ptr (ptr, ptr, ...) @wmem_strdup_printf(ptr noundef null, ptr noundef @.str.76, i32 noundef %70)
  store ptr %71, ptr %3, align 8
  store i32 1, ptr %12, align 4
  br label %73

72:                                               ; preds = %57
  store i32 3, ptr %12, align 4
  br label %73

73:                                               ; preds = %72, %69, %66, %63
  call void @llvm.lifetime.end.p0(i64 4, ptr %13) #17
  %74 = load i32, ptr %12, align 4
  switch i32 %74, label %185 [
    i32 3, label %182
  ]

75:                                               ; preds = %55
  %76 = load ptr, ptr %7, align 8
  %77 = load i8, ptr %76, align 1, !range !6, !noundef !7
  %78 = trunc i8 %77 to i1
  %79 = select i1 %78, ptr @.str.77, ptr @.str.78
  %80 = call noalias ptr @g_strdup(ptr noundef %79)
  store ptr %80, ptr %3, align 8
  store i32 1, ptr %12, align 4
  br label %185

81:                                               ; preds = %55, %55
  call void @llvm.lifetime.start.p0(i64 4, ptr %14) #17
  %82 = load ptr, ptr %7, align 8
  %83 = load i32, ptr %82, align 4
  store i32 %83, ptr %14, align 4
  call void @llvm.lifetime.start.p0(i64 8, ptr %15) #17
  %84 = load ptr, ptr %4, align 8
  %85 = getelementptr inbounds nuw %struct.preference, ptr %84, i32 0, i32 9
  %86 = getelementptr inbounds nuw %struct.anon, ptr %85, i32 0, i32 0
  %87 = load ptr, ptr %86, align 8
  store ptr %87, ptr %15, align 8
  br label %88

88:                                               ; preds = %104, %81
  %89 = load ptr, ptr %15, align 8
  %90 = getelementptr inbounds nuw %struct.enum_val_t, ptr %89, i32 0, i32 0
  %91 = load ptr, ptr %90, align 8
  %92 = icmp ne ptr %91, null
  br i1 %92, label %93, label %107

93:                                               ; preds = %88
  %94 = load ptr, ptr %15, align 8
  %95 = getelementptr inbounds nuw %struct.enum_val_t, ptr %94, i32 0, i32 2
  %96 = load i32, ptr %95, align 8
  %97 = load i32, ptr %14, align 4
  %98 = icmp eq i32 %96, %97
  br i1 %98, label %99, label %104

99:                                               ; preds = %93
  %100 = load ptr, ptr %15, align 8
  %101 = getelementptr inbounds nuw %struct.enum_val_t, ptr %100, i32 0, i32 1
  %102 = load ptr, ptr %101, align 8
  %103 = call noalias ptr @g_strdup(ptr noundef %102)
  store ptr %103, ptr %3, align 8
  store i32 1, ptr %12, align 4
  br label %108

104:                                              ; preds = %93
  %105 = load ptr, ptr %15, align 8
  %106 = getelementptr %struct.enum_val_t, ptr %105, i32 1
  store ptr %106, ptr %15, align 8
  br label %88, !llvm.loop !39

107:                                              ; preds = %88
  store i32 3, ptr %12, align 4
  br label %108

108:                                              ; preds = %107, %99
  call void @llvm.lifetime.end.p0(i64 8, ptr %15) #17
  call void @llvm.lifetime.end.p0(i64 4, ptr %14) #17
  %109 = load i32, ptr %12, align 4
  switch i32 %109, label %185 [
    i32 3, label %182
  ]

110:                                              ; preds = %55, %55, %55, %55, %55, %55
  %111 = load ptr, ptr %7, align 8
  %112 = load ptr, ptr %111, align 8
  %113 = call noalias ptr @g_strdup(ptr noundef %112)
  store ptr %113, ptr %3, align 8
  store i32 1, ptr %12, align 4
  br label %185

114:                                              ; preds = %55, %55
  %115 = load ptr, ptr %7, align 8
  %116 = load ptr, ptr %115, align 8
  %117 = call ptr @range_convert_range(ptr noundef null, ptr noundef %116)
  store ptr %117, ptr %9, align 8
  %118 = load ptr, ptr %9, align 8
  %119 = call noalias ptr @g_strdup(ptr noundef %118)
  store ptr %119, ptr %10, align 8
  %120 = load ptr, ptr %9, align 8
  call void @wmem_free(ptr noundef null, ptr noundef %120)
  %121 = load ptr, ptr %10, align 8
  store ptr %121, ptr %3, align 8
  store i32 1, ptr %12, align 4
  br label %185

122:                                              ; preds = %55
  %123 = load ptr, ptr %8, align 8
  %124 = getelementptr inbounds nuw %struct.color_t, ptr %123, i32 0, i32 0
  %125 = load i16, ptr %124, align 2
  %126 = zext i16 %125 to i32
  %127 = mul i32 %126, 255
  %128 = sdiv i32 %127, 65535
  %129 = load ptr, ptr %8, align 8
  %130 = getelementptr inbounds nuw %struct.color_t, ptr %129, i32 0, i32 1
  %131 = load i16, ptr %130, align 2
  %132 = zext i16 %131 to i32
  %133 = mul i32 %132, 255
  %134 = sdiv i32 %133, 65535
  %135 = load ptr, ptr %8, align 8
  %136 = getelementptr inbounds nuw %struct.color_t, ptr %135, i32 0, i32 2
  %137 = load i16, ptr %136, align 2
  %138 = zext i16 %137 to i32
  %139 = mul i32 %138, 255
  %140 = sdiv i32 %139, 65535
  %141 = call noalias ptr (ptr, ptr, ...) @wmem_strdup_printf(ptr noundef null, ptr noundef @.str.79, i32 noundef %128, i32 noundef %134, i32 noundef %140)
  store ptr %141, ptr %3, align 8
  store i32 1, ptr %12, align 4
  br label %185

142:                                              ; preds = %55
  %143 = load ptr, ptr %4, align 8
  %144 = getelementptr inbounds nuw %struct.preference, ptr %143, i32 0, i32 10
  %145 = getelementptr inbounds nuw %struct.pref_custom_cbs, ptr %144, i32 0, i32 6
  %146 = load ptr, ptr %145, align 8
  %147 = icmp ne ptr %146, null
  br i1 %147, label %148, label %159

148:                                              ; preds = %142
  %149 = load ptr, ptr %4, align 8
  %150 = getelementptr inbounds nuw %struct.preference, ptr %149, i32 0, i32 10
  %151 = getelementptr inbounds nuw %struct.pref_custom_cbs, ptr %150, i32 0, i32 6
  %152 = load ptr, ptr %151, align 8
  %153 = load ptr, ptr %4, align 8
  %154 = load i32, ptr %5, align 4
  %155 = icmp eq i32 %154, 0
  %156 = select i1 %155, i32 1, i32 0
  %157 = icmp ne i32 %156, 0
  %158 = call ptr %152(ptr noundef %153, i1 noundef zeroext %157)
  store ptr %158, ptr %3, align 8
  store i32 1, ptr %12, align 4
  br label %185

159:                                              ; preds = %142
  store ptr @.str.80, ptr %6, align 8
  br label %182

160:                                              ; preds = %55
  store ptr @.str.69, ptr %6, align 8
  br label %182

161:                                              ; preds = %55
  call void @llvm.lifetime.start.p0(i64 8, ptr %16) #17
  %162 = load ptr, ptr %4, align 8
  %163 = getelementptr inbounds nuw %struct.preference, ptr %162, i32 0, i32 6
  %164 = load ptr, ptr %163, align 8
  store ptr %164, ptr %16, align 8
  %165 = load ptr, ptr %16, align 8
  %166 = icmp ne ptr %165, null
  br i1 %166, label %167, label %177

167:                                              ; preds = %161
  %168 = load ptr, ptr %16, align 8
  %169 = getelementptr inbounds nuw %struct.epan_uat, ptr %168, i32 0, i32 2
  %170 = load ptr, ptr %169, align 8
  %171 = icmp ne ptr %170, null
  br i1 %171, label %172, label %177

172:                                              ; preds = %167
  %173 = load ptr, ptr %16, align 8
  %174 = getelementptr inbounds nuw %struct.epan_uat, ptr %173, i32 0, i32 2
  %175 = load ptr, ptr %174, align 8
  %176 = call noalias ptr (ptr, ptr, ...) @wmem_strdup_printf(ptr noundef null, ptr noundef @.str.81, ptr noundef %175)
  store ptr %176, ptr %3, align 8
  store i32 1, ptr %12, align 4
  br label %179

177:                                              ; preds = %167, %161
  store ptr @.str.82, ptr %6, align 8
  br label %178

178:                                              ; preds = %177
  store i32 3, ptr %12, align 4
  br label %179

179:                                              ; preds = %178, %172
  call void @llvm.lifetime.end.p0(i64 8, ptr %16) #17
  %180 = load i32, ptr %12, align 4
  switch i32 %180, label %185 [
    i32 3, label %182
  ]

181:                                              ; preds = %55
  br label %182

182:                                              ; preds = %181, %179, %160, %159, %108, %73
  %183 = load ptr, ptr %6, align 8
  %184 = call noalias ptr @g_strdup(ptr noundef %183)
  store ptr %184, ptr %3, align 8
  store i32 1, ptr %12, align 4
  br label %185

185:                                              ; preds = %182, %179, %148, %122, %114, %110, %108, %75, %73, %41, %19
  call void @llvm.lifetime.end.p0(i64 4, ptr %11) #17
  call void @llvm.lifetime.end.p0(i64 8, ptr %10) #17
  call void @llvm.lifetime.end.p0(i64 8, ptr %9) #17
  call void @llvm.lifetime.end.p0(i64 8, ptr %8) #17
  call void @llvm.lifetime.end.p0(i64 8, ptr %7) #17
  call void @llvm.lifetime.end.p0(i64 8, ptr %6) #17
  %186 = load ptr, ptr %3, align 8
  ret ptr %186
}