; Function Attrs: null_pointer_is_valid sspstrong uwtable
define ptr @prefs_pref_to_str(ptr noundef %0, i32 noundef %1) local_unnamed_addr #1 {
  %.not = icmp eq ptr %0, null
  br i1 %.not, label %3, label %5

3:                                                ; preds = %2
  %4 = tail call noalias ptr @g_strdup(ptr noundef nonnull @.str.31)
  br label %.thread

5:                                                ; preds = %2
  switch i32 %1, label %13 [
    i32 0, label %6
    i32 1, label %8
    i32 2, label %10
  ]

6:                                                ; preds = %5
  %7 = getelementptr inbounds nuw i8, ptr %0, i64 56
  br label %15

8:                                                ; preds = %5
  %9 = getelementptr inbounds nuw i8, ptr %0, i64 48
  br label %15

10:                                               ; preds = %5
  %11 = getelementptr inbounds nuw i8, ptr %0, i64 40
  %12 = load ptr, ptr %11, align 8
  br label %15

13:                                               ; preds = %5
  %14 = tail call noalias ptr @g_strdup(ptr noundef nonnull @.str.31)
  br label %.thread

15:                                               ; preds = %10, %8, %6
  %.053 = phi ptr [ %12, %10 ], [ %9, %8 ], [ %7, %6 ]
  %16 = getelementptr inbounds nuw i8, ptr %0, i64 28
  %17 = load i32, ptr %16, align 4
  %18 = and i32 %17, 1024
  %.not63 = icmp eq i32 %18, 0
  %.str.31..str.73 = select i1 %.not63, ptr @.str.31, ptr @.str.73
  switch i32 %17, label %.thread70 [
    i32 1, label %19
    i32 2, label %29
    i32 4, label %34
    i32 65536, label %34
    i32 8, label %49
    i32 128, label %49
    i32 16384, label %49
    i32 2048, label %49
    i32 32768, label %49
    i32 131072, label %49
    i32 8192, label %52
    i32 16, label %52
    i32 256, label %56
    i32 512, label %69
    i32 32, label %75
    i32 64, label %76
  ]

19:                                               ; preds = %15
  %20 = load i32, ptr %.053, align 4
  %21 = getelementptr inbounds nuw i8, ptr %0, i64 64
  %22 = load i32, ptr %21, align 8
  switch i32 %22, label %.thread70 [
    i32 10, label %23
    i32 8, label %25
    i32 16, label %27
  ]

23:                                               ; preds = %19
  %24 = tail call noalias ptr (ptr, ptr, ...) @wmem_strdup_printf(ptr noundef null, ptr noundef nonnull @.str.74, i32 noundef %20)
  br label %.thread

25:                                               ; preds = %19
  %26 = tail call noalias ptr (ptr, ptr, ...) @wmem_strdup_printf(ptr noundef null, ptr noundef nonnull @.str.75, i32 noundef %20)
  br label %.thread

27:                                               ; preds = %19
  %28 = tail call noalias ptr (ptr, ptr, ...) @wmem_strdup_printf(ptr noundef null, ptr noundef nonnull @.str.76, i32 noundef %20)
  br label %.thread

29:                                               ; preds = %15
  %30 = load i8, ptr %.053, align 1, !range !6, !noundef !7
  %31 = trunc nuw i8 %30 to i1
  %32 = select i1 %31, ptr @.str.77, ptr @.str.78
  %33 = tail call noalias ptr @g_strdup(ptr noundef nonnull %32)
  br label %.thread

34:                                               ; preds = %15, %15
  %35 = load i32, ptr %.053, align 4
  %36 = getelementptr inbounds nuw i8, ptr %0, i64 64
  %37 = load ptr, ptr %36, align 8
  %38 = load ptr, ptr %37, align 8
  %.not6778 = icmp eq ptr %38, null
  br i1 %.not6778, label %.thread70, label %.lr.ph

.lr.ph:                                           ; preds = %34, %42
  %.04979 = phi ptr [ %43, %42 ], [ %37, %34 ]
  %39 = getelementptr inbounds nuw i8, ptr %.04979, i64 16
  %40 = load i32, ptr %39, align 8
  %41 = icmp eq i32 %40, %35
  br i1 %41, label %45, label %42

42:                                               ; preds = %.lr.ph
  %43 = getelementptr i8, ptr %.04979, i64 24
  %44 = load ptr, ptr %43, align 8
  %.not67 = icmp eq ptr %44, null
  br i1 %.not67, label %.thread70, label %.lr.ph, !llvm.loop !45

45:                                               ; preds = %.lr.ph
  %46 = getelementptr inbounds nuw i8, ptr %.04979, i64 8
  %47 = load ptr, ptr %46, align 8
  %48 = tail call noalias ptr @g_strdup(ptr noundef %47)
  br label %.thread

49:                                               ; preds = %15, %15, %15, %15, %15, %15
  %50 = load ptr, ptr %.053, align 8
  %51 = tail call noalias ptr @g_strdup(ptr noundef %50)
  br label %.thread

52:                                               ; preds = %15, %15
  %53 = load ptr, ptr %.053, align 8
  %54 = tail call ptr @range_convert_range(ptr noundef null, ptr noundef %53)
  %55 = tail call noalias ptr @g_strdup(ptr noundef %54)
  tail call void @wmem_free(ptr noundef null, ptr noundef %54)
  br label %.thread

56:                                               ; preds = %15
  %57 = load i16, ptr %.053, align 2
  %58 = udiv i16 %57, 257
  %59 = zext nneg i16 %58 to i32
  %60 = getelementptr inbounds nuw i8, ptr %.053, i64 2
  %61 = load i16, ptr %60, align 2
  %62 = udiv i16 %61, 257
  %63 = zext nneg i16 %62 to i32
  %64 = getelementptr inbounds nuw i8, ptr %.053, i64 4
  %65 = load i16, ptr %64, align 2
  %66 = udiv i16 %65, 257
  %67 = zext nneg i16 %66 to i32
  %68 = tail call noalias ptr (ptr, ptr, ...) @wmem_strdup_printf(ptr noundef null, ptr noundef nonnull @.str.79, i32 noundef %59, i32 noundef %63, i32 noundef %67)
  br label %.thread

69:                                               ; preds = %15
  %70 = getelementptr inbounds nuw i8, ptr %0, i64 128
  %71 = load ptr, ptr %70, align 8
  %.not66 = icmp eq ptr %71, null
  br i1 %.not66, label %.thread70, label %72

72:                                               ; preds = %69
  %73 = icmp eq i32 %1, 0
  %74 = tail call ptr %71(ptr noundef nonnull %0, i1 noundef zeroext %73)
  br label %.thread

75:                                               ; preds = %15
  br label %.thread70

76:                                               ; preds = %15
  %77 = getelementptr inbounds nuw i8, ptr %0, i64 40
  %78 = load ptr, ptr %77, align 8
  %.not64 = icmp eq ptr %78, null
  br i1 %.not64, label %.thread70, label %79

79:                                               ; preds = %76
  %80 = getelementptr inbounds nuw i8, ptr %78, i64 16
  %81 = load ptr, ptr %80, align 8
  %.not65 = icmp eq ptr %81, null
  br i1 %.not65, label %.thread70, label %82

82:                                               ; preds = %79
  %83 = tail call noalias ptr (ptr, ptr, ...) @wmem_strdup_printf(ptr noundef null, ptr noundef nonnull @.str.81, ptr noundef nonnull %81)
  br label %.thread

.thread70:                                        ; preds = %42, %34, %76, %79, %19, %69, %15, %75
  %.151 = phi ptr [ %.str.31..str.73, %15 ], [ @.str.69, %75 ], [ @.str.80, %69 ], [ %.str.31..str.73, %19 ], [ @.str.82, %79 ], [ @.str.82, %76 ], [ %.str.31..str.73, %34 ], [ %.str.31..str.73, %42 ]
  %84 = tail call noalias ptr @g_strdup(ptr noundef nonnull %.151)
  br label %.thread

.thread:                                          ; preds = %23, %25, %27, %82, %45, %.thread70, %72, %56, %52, %49, %29, %13, %3
  %.0 = phi ptr [ %14, %13 ], [ %84, %.thread70 ], [ %83, %82 ], [ %74, %72 ], [ %68, %56 ], [ %55, %52 ], [ %51, %49 ], [ %48, %45 ], [ %33, %29 ], [ %4, %3 ], [ %24, %23 ], [ %26, %25 ], [ %28, %27 ]
  ret ptr %.0
}